	.text
	.def	@feat.00;
	.scl	3;
	.type	0;
	.endef
	.globl	@feat.00
.set @feat.00, 0
	.file	"main.c"
	.def	sprintf;
	.scl	2;
	.type	32;
	.endef
	.section	.text,"xr",discard,sprintf
	.globl	sprintf                         # -- Begin function sprintf
	.p2align	4, 0x90
sprintf:                                # @sprintf
.Lfunc_begin0:
	.cv_func_id 0
	.cv_file	1 "C:\\Program Files (x86)\\Windows Kits\\10\\Include\\10.0.22621.0\\ucrt\\stdio.h"
	.cv_loc	0 1 1771 0                      # C:\Program Files (x86)\Windows Kits\10\Include\10.0.22621.0\ucrt\stdio.h:1771:0
.seh_proc sprintf
# %bb.0:
	subq	$72, %rsp
	.seh_stackalloc 72
	.seh_endprologue
	movq	%r9, 104(%rsp)
	movq	%r8, 96(%rsp)
	movq	%rdx, 64(%rsp)
	movq	%rcx, 56(%rsp)
	leaq	96(%rsp), %rax
.Ltmp0:
	.cv_loc	0 1 1774 0                      # C:\Program Files (x86)\Windows Kits\10\Include\10.0.22621.0\ucrt\stdio.h:1774:0
	movq	%rax, 40(%rsp)
	.cv_loc	0 1 1776 0                      # C:\Program Files (x86)\Windows Kits\10\Include\10.0.22621.0\ucrt\stdio.h:1776:0
	movq	40(%rsp), %r9
	movq	64(%rsp), %rdx
	movq	56(%rsp), %rcx
	xorl	%eax, %eax
	movl	%eax, %r8d
	callq	_vsprintf_l
	movl	%eax, 52(%rsp)
	.cv_loc	0 1 1779 0                      # C:\Program Files (x86)\Windows Kits\10\Include\10.0.22621.0\ucrt\stdio.h:1779:0
	movl	52(%rsp), %eax
	addq	$72, %rsp
	retq
.Ltmp1:
.Lfunc_end0:
	.seh_endproc
                                        # -- End function
	.def	vsprintf;
	.scl	2;
	.type	32;
	.endef
	.section	.text,"xr",discard,vsprintf
	.globl	vsprintf                        # -- Begin function vsprintf
	.p2align	4, 0x90
vsprintf:                               # @vsprintf
.Lfunc_begin1:
	.cv_func_id 1
	.cv_loc	1 1 1473 0                      # C:\Program Files (x86)\Windows Kits\10\Include\10.0.22621.0\ucrt\stdio.h:1473:0
.seh_proc vsprintf
# %bb.0:
	subq	$72, %rsp
	.seh_stackalloc 72
	.seh_endprologue
	movq	%r8, 64(%rsp)
	movq	%rdx, 56(%rsp)
	movq	%rcx, 48(%rsp)
.Ltmp2:
	.cv_loc	1 1 1474 0                      # C:\Program Files (x86)\Windows Kits\10\Include\10.0.22621.0\ucrt\stdio.h:1474:0
	movq	64(%rsp), %rax
	movq	56(%rsp), %r8
	movq	48(%rsp), %rcx
	movq	$-1, %rdx
	xorl	%r9d, %r9d
                                        # kill: def $r9 killed $r9d
	movq	%rax, 32(%rsp)
	callq	_vsnprintf_l
	nop
	addq	$72, %rsp
	retq
.Ltmp3:
.Lfunc_end1:
	.seh_endproc
                                        # -- End function
	.def	_snprintf;
	.scl	2;
	.type	32;
	.endef
	.section	.text,"xr",discard,_snprintf
	.globl	_snprintf                       # -- Begin function _snprintf
	.p2align	4, 0x90
_snprintf:                              # @_snprintf
.Lfunc_begin2:
	.cv_func_id 2
	.cv_loc	2 1 1947 0                      # C:\Program Files (x86)\Windows Kits\10\Include\10.0.22621.0\ucrt\stdio.h:1947:0
.seh_proc _snprintf
# %bb.0:
	subq	$72, %rsp
	.seh_stackalloc 72
	.seh_endprologue
	movq	%r9, 104(%rsp)
	movq	%r8, 64(%rsp)
	movq	%rdx, 56(%rsp)
	movq	%rcx, 48(%rsp)
	leaq	104(%rsp), %rax
.Ltmp4:
	.cv_loc	2 1 1950 0                      # C:\Program Files (x86)\Windows Kits\10\Include\10.0.22621.0\ucrt\stdio.h:1950:0
	movq	%rax, 32(%rsp)
	.cv_loc	2 1 1951 0                      # C:\Program Files (x86)\Windows Kits\10\Include\10.0.22621.0\ucrt\stdio.h:1951:0
	movq	32(%rsp), %r9
	movq	64(%rsp), %r8
	movq	56(%rsp), %rdx
	movq	48(%rsp), %rcx
	callq	_vsnprintf
	movl	%eax, 44(%rsp)
	.cv_loc	2 1 1953 0                      # C:\Program Files (x86)\Windows Kits\10\Include\10.0.22621.0\ucrt\stdio.h:1953:0
	movl	44(%rsp), %eax
	addq	$72, %rsp
	retq
.Ltmp5:
.Lfunc_end2:
	.seh_endproc
                                        # -- End function
	.def	_vsnprintf;
	.scl	2;
	.type	32;
	.endef
	.section	.text,"xr",discard,_vsnprintf
	.globl	_vsnprintf                      # -- Begin function _vsnprintf
	.p2align	4, 0x90
_vsnprintf:                             # @_vsnprintf
.Lfunc_begin3:
	.cv_func_id 3
	.cv_loc	3 1 1411 0                      # C:\Program Files (x86)\Windows Kits\10\Include\10.0.22621.0\ucrt\stdio.h:1411:0
.seh_proc _vsnprintf
# %bb.0:
	subq	$72, %rsp
	.seh_stackalloc 72
	.seh_endprologue
	movq	%r9, 64(%rsp)
	movq	%r8, 56(%rsp)
	movq	%rdx, 48(%rsp)
	movq	%rcx, 40(%rsp)
.Ltmp6:
	.cv_loc	3 1 1412 0                      # C:\Program Files (x86)\Windows Kits\10\Include\10.0.22621.0\ucrt\stdio.h:1412:0
	movq	64(%rsp), %rax
	movq	56(%rsp), %r8
	movq	48(%rsp), %rdx
	movq	40(%rsp), %rcx
	xorl	%r9d, %r9d
                                        # kill: def $r9 killed $r9d
	movq	%rax, 32(%rsp)
	callq	_vsnprintf_l
	nop
	addq	$72, %rsp
	retq
.Ltmp7:
.Lfunc_end3:
	.seh_endproc
                                        # -- End function
	.def	main;
	.scl	2;
	.type	32;
	.endef
	.text
	.globl	main                            # -- Begin function main
	.p2align	4, 0x90
main:                                   # @main
.Lfunc_begin4:
	.cv_func_id 4
	.cv_file	2 "h:\\Workspace\\vscode-llvm\\example\\test\\main.c"
	.cv_loc	4 2 3 0                         # test/main.c:3:0
.seh_proc main
# %bb.0:
	subq	$56, %rsp
	.seh_stackalloc 56
	.seh_endprologue
	movl	$0, 52(%rsp)
	movq	%rdx, 40(%rsp)
	movl	%ecx, 36(%rsp)
.Ltmp8:
	.cv_loc	4 2 4 0                         # test/main.c:4:0
	leaq	"??_C@_06NJBIDDBG@Hello?6?$AA@"(%rip), %rcx
	callq	printf
	.cv_loc	4 2 5 0                         # test/main.c:5:0
	leaq	"??_C@_06DKJADKFF@World?6?$AA@"(%rip), %rcx
	callq	printf
	.cv_loc	4 2 6 0                         # test/main.c:6:0
	xorl	%eax, %eax
	addq	$56, %rsp
	retq
.Ltmp9:
.Lfunc_end4:
	.seh_endproc
                                        # -- End function
	.def	printf;
	.scl	2;
	.type	32;
	.endef
	.section	.text,"xr",discard,printf
	.globl	printf                          # -- Begin function printf
	.p2align	4, 0x90
printf:                                 # @printf
.Lfunc_begin5:
	.cv_func_id 5
	.cv_loc	5 1 956 0                       # C:\Program Files (x86)\Windows Kits\10\Include\10.0.22621.0\ucrt\stdio.h:956:0
.seh_proc printf
# %bb.0:
	subq	$72, %rsp
	.seh_stackalloc 72
	.seh_endprologue
	movq	%r9, 104(%rsp)
	movq	%r8, 96(%rsp)
	movq	%rdx, 88(%rsp)
	movq	%rcx, 64(%rsp)
	leaq	88(%rsp), %rax
.Ltmp10:
	.cv_loc	5 1 959 0                       # C:\Program Files (x86)\Windows Kits\10\Include\10.0.22621.0\ucrt\stdio.h:959:0
	movq	%rax, 48(%rsp)
	.cv_loc	5 1 960 0                       # C:\Program Files (x86)\Windows Kits\10\Include\10.0.22621.0\ucrt\stdio.h:960:0
	movq	48(%rsp), %rax
	movq	%rax, 40(%rsp)                  # 8-byte Spill
	movq	64(%rsp), %rax
	movq	%rax, 32(%rsp)                  # 8-byte Spill
	movl	$1, %ecx
	callq	__acrt_iob_func
	movq	32(%rsp), %rdx                  # 8-byte Reload
	movq	40(%rsp), %r9                   # 8-byte Reload
	movq	%rax, %rcx
	xorl	%eax, %eax
	movl	%eax, %r8d
	callq	_vfprintf_l
	movl	%eax, 60(%rsp)
	.cv_loc	5 1 962 0                       # C:\Program Files (x86)\Windows Kits\10\Include\10.0.22621.0\ucrt\stdio.h:962:0
	movl	60(%rsp), %eax
	addq	$72, %rsp
	retq
.Ltmp11:
.Lfunc_end5:
	.seh_endproc
                                        # -- End function
	.def	_vsprintf_l;
	.scl	2;
	.type	32;
	.endef
	.section	.text,"xr",discard,_vsprintf_l
	.globl	_vsprintf_l                     # -- Begin function _vsprintf_l
	.p2align	4, 0x90
_vsprintf_l:                            # @_vsprintf_l
.Lfunc_begin6:
	.cv_func_id 6
	.cv_loc	6 1 1458 0                      # C:\Program Files (x86)\Windows Kits\10\Include\10.0.22621.0\ucrt\stdio.h:1458:0
.seh_proc _vsprintf_l
# %bb.0:
	subq	$72, %rsp
	.seh_stackalloc 72
	.seh_endprologue
	movq	%r9, 64(%rsp)
	movq	%r8, 56(%rsp)
	movq	%rdx, 48(%rsp)
	movq	%rcx, 40(%rsp)
.Ltmp12:
	.cv_loc	6 1 1459 0                      # C:\Program Files (x86)\Windows Kits\10\Include\10.0.22621.0\ucrt\stdio.h:1459:0
	movq	64(%rsp), %rax
	movq	56(%rsp), %r9
	movq	48(%rsp), %r8
	movq	40(%rsp), %rcx
	movq	$-1, %rdx
	movq	%rax, 32(%rsp)
	callq	_vsnprintf_l
	nop
	addq	$72, %rsp
	retq
.Ltmp13:
.Lfunc_end6:
	.seh_endproc
                                        # -- End function
	.def	_vsnprintf_l;
	.scl	2;
	.type	32;
	.endef
	.section	.text,"xr",discard,_vsnprintf_l
	.globl	_vsnprintf_l                    # -- Begin function _vsnprintf_l
	.p2align	4, 0x90
_vsnprintf_l:                           # @_vsnprintf_l
.Lfunc_begin7:
	.cv_func_id 7
	.cv_loc	7 1 1391 0                      # C:\Program Files (x86)\Windows Kits\10\Include\10.0.22621.0\ucrt\stdio.h:1391:0
.seh_proc _vsnprintf_l
# %bb.0:
	subq	$136, %rsp
	.seh_stackalloc 136
	.seh_endprologue
	movq	176(%rsp), %rax
	movq	%r9, 128(%rsp)
	movq	%r8, 120(%rsp)
	movq	%rdx, 112(%rsp)
	movq	%rcx, 104(%rsp)
.Ltmp14:
	.cv_loc	7 1 1392 0                      # C:\Program Files (x86)\Windows Kits\10\Include\10.0.22621.0\ucrt\stdio.h:1392:0
	movq	176(%rsp), %rax
	movq	%rax, 88(%rsp)                  # 8-byte Spill
	movq	128(%rsp), %rax
	movq	%rax, 80(%rsp)                  # 8-byte Spill
	movq	120(%rsp), %rax
	movq	%rax, 72(%rsp)                  # 8-byte Spill
	movq	112(%rsp), %rax
	movq	%rax, 64(%rsp)                  # 8-byte Spill
	movq	104(%rsp), %rax
	movq	%rax, 56(%rsp)                  # 8-byte Spill
	callq	__local_stdio_printf_options
	movq	56(%rsp), %rdx                  # 8-byte Reload
	movq	64(%rsp), %r8                   # 8-byte Reload
	movq	72(%rsp), %r9                   # 8-byte Reload
	movq	80(%rsp), %r10                  # 8-byte Reload
	movq	%rax, %rcx
	movq	88(%rsp), %rax                  # 8-byte Reload
	movq	(%rcx), %rcx
	orq	$1, %rcx
	movq	%r10, 32(%rsp)
	movq	%rax, 40(%rsp)
	callq	__stdio_common_vsprintf
	movl	%eax, 100(%rsp)
	.cv_loc	7 1 1396 0                      # C:\Program Files (x86)\Windows Kits\10\Include\10.0.22621.0\ucrt\stdio.h:1396:0
	cmpl	$0, 100(%rsp)
	jge	.LBB7_2
# %bb.1:
	movl	$4294967295, %eax               # imm = 0xFFFFFFFF
	movl	%eax, 52(%rsp)                  # 4-byte Spill
	jmp	.LBB7_3
.LBB7_2:
	movl	100(%rsp), %eax
	movl	%eax, 52(%rsp)                  # 4-byte Spill
.LBB7_3:
	movl	52(%rsp), %eax                  # 4-byte Reload
	addq	$136, %rsp
	retq
.Ltmp15:
.Lfunc_end7:
	.seh_endproc
                                        # -- End function
	.def	__local_stdio_printf_options;
	.scl	2;
	.type	32;
	.endef
	.section	.text,"xr",discard,__local_stdio_printf_options
	.globl	__local_stdio_printf_options    # -- Begin function __local_stdio_printf_options
	.p2align	4, 0x90
__local_stdio_printf_options:           # @__local_stdio_printf_options
.Lfunc_begin8:
	.cv_func_id 8
# %bb.0:
	.cv_file	3 "C:\\Program Files (x86)\\Windows Kits\\10\\Include\\10.0.22621.0\\ucrt\\corecrt_stdio_config.h"
	.cv_loc	8 3 92 0                        # C:\Program Files (x86)\Windows Kits\10\Include\10.0.22621.0\ucrt\corecrt_stdio_config.h:92:0
	leaq	__local_stdio_printf_options._OptionsStorage(%rip), %rax
	retq
.Ltmp16:
.Lfunc_end8:
                                        # -- End function
	.def	_vfprintf_l;
	.scl	2;
	.type	32;
	.endef
	.section	.text,"xr",discard,_vfprintf_l
	.globl	_vfprintf_l                     # -- Begin function _vfprintf_l
	.p2align	4, 0x90
_vfprintf_l:                            # @_vfprintf_l
.Lfunc_begin9:
	.cv_func_id 9
	.cv_loc	9 1 644 0                       # C:\Program Files (x86)\Windows Kits\10\Include\10.0.22621.0\ucrt\stdio.h:644:0
.seh_proc _vfprintf_l
# %bb.0:
	subq	$104, %rsp
	.seh_stackalloc 104
	.seh_endprologue
	movq	%r9, 96(%rsp)
	movq	%r8, 88(%rsp)
	movq	%rdx, 80(%rsp)
	movq	%rcx, 72(%rsp)
.Ltmp17:
	.cv_loc	9 1 645 0                       # C:\Program Files (x86)\Windows Kits\10\Include\10.0.22621.0\ucrt\stdio.h:645:0
	movq	96(%rsp), %rax
	movq	%rax, 64(%rsp)                  # 8-byte Spill
	movq	88(%rsp), %rax
	movq	%rax, 56(%rsp)                  # 8-byte Spill
	movq	80(%rsp), %rax
	movq	%rax, 48(%rsp)                  # 8-byte Spill
	movq	72(%rsp), %rax
	movq	%rax, 40(%rsp)                  # 8-byte Spill
	callq	__local_stdio_printf_options
	movq	40(%rsp), %rdx                  # 8-byte Reload
	movq	48(%rsp), %r8                   # 8-byte Reload
	movq	56(%rsp), %r9                   # 8-byte Reload
	movq	%rax, %rcx
	movq	64(%rsp), %rax                  # 8-byte Reload
	movq	(%rcx), %rcx
	movq	%rax, 32(%rsp)
	callq	__stdio_common_vfprintf
	nop
	addq	$104, %rsp
	retq
.Ltmp18:
.Lfunc_end9:
	.seh_endproc
                                        # -- End function
	.section	.rdata,"dr",discard,"??_C@_06NJBIDDBG@Hello?6?$AA@"
	.globl	"??_C@_06NJBIDDBG@Hello?6?$AA@" # @"??_C@_06NJBIDDBG@Hello?6?$AA@"
"??_C@_06NJBIDDBG@Hello?6?$AA@":
	.asciz	"Hello\n"

	.section	.rdata,"dr",discard,"??_C@_06DKJADKFF@World?6?$AA@"
	.globl	"??_C@_06DKJADKFF@World?6?$AA@" # @"??_C@_06DKJADKFF@World?6?$AA@"
"??_C@_06DKJADKFF@World?6?$AA@":
	.asciz	"World\n"

	.lcomm	__local_stdio_printf_options._OptionsStorage,8,8 # @__local_stdio_printf_options._OptionsStorage